; Function Attrs: nounwind uwtable
define internal void @test_fail_message(ptr readnone captures(none) %0, ptr noundef %1, i32 noundef %2, ptr noundef %3, ptr noundef %4, ptr noundef %5, ptr noundef %6, ptr noundef %7, ...) unnamed_addr #0 {
  %9 = alloca [1 x %struct.__va_list_tag], align 16
  call void @llvm.lifetime.start.p0(i64 24, ptr nonnull %9) #8
  call void @llvm.va_start.p0(ptr nonnull %9)
  %10 = call i32 (ptr, ...) @test_printf_stderr(ptr noundef nonnull @.str, ptr noundef nonnull @.str.1) #8
  %.not18.i.i = icmp eq ptr %3, null
  br i1 %.not18.i.i, label %13, label %11

11:                                               ; preds = %8
  %12 = call i32 (ptr, ...) @test_printf_stderr(ptr noundef nonnull @.str.2, ptr noundef nonnull %3) #8
  br label %13

13:                                               ; preds = %11, %8
  %.not19.i.i = icmp eq ptr %6, null
  br i1 %.not19.i.i, label %21, label %14

14:                                               ; preds = %13
  %15 = icmp ne ptr %4, null
  %16 = icmp ne ptr %5, null
  %or.cond.i.i = and i1 %15, %16
  br i1 %or.cond.i.i, label %17, label %19

17:                                               ; preds = %14
  %18 = call i32 (ptr, ...) @test_printf_stderr(ptr noundef nonnull @.str.3, ptr noundef nonnull %4, ptr noundef nonnull %6, ptr noundef nonnull %5) #8
  br label %21

19:                                               ; preds = %14
  %20 = call i32 (ptr, ...) @test_printf_stderr(ptr noundef nonnull @.str.4, ptr noundef nonnull %6) #8
  br label %21

21:                                               ; preds = %19, %17, %13
  %.not20.i.i = icmp eq ptr %1, null
  br i1 %.not20.i.i, label %test_fail_message_prefix.exit.i, label %22

22:                                               ; preds = %21
  %23 = call i32 (ptr, ...) @test_printf_stderr(ptr noundef nonnull @.str.5, ptr noundef nonnull %1, i32 noundef %2) #8
  br label %test_fail_message_prefix.exit.i

test_fail_message_prefix.exit.i:                  ; preds = %22, %21
  %24 = call i32 (ptr, ...) @test_printf_stderr(ptr noundef nonnull @.str.6) #8
  %.not.i = icmp eq ptr %7, null
  br i1 %.not.i, label %test_fail_message_va.exit, label %25

25:                                               ; preds = %test_fail_message_prefix.exit.i
  %26 = call i32 @test_vprintf_stderr(ptr noundef nonnull %7, ptr noundef nonnull %9) #8
  %27 = call i32 (ptr, ...) @test_printf_stderr(ptr noundef nonnull @.str.6) #8
  br label %test_fail_message_va.exit

test_fail_message_va.exit:                        ; preds = %test_fail_message_prefix.exit.i, %25
  %28 = call i32 @test_flush_stderr() #8
  call void @llvm.va_end.p0(ptr nonnull %9)
  call void @llvm.lifetime.end.p0(i64 24, ptr nonnull %9) #8
  ret void
}